	.file	"um.c"
	.text
.Ltext0:
	.section	.rodata.str1.8,"aMS",@progbits,1
	.align 8
.LC0:
	.string	"Error: please specify one file\n"
	.section	.rodata.str1.1,"aMS",@progbits,1
.LC1:
	.string	"r"
.LC2:
	.string	"Error within file\n"
.LC3:
	.string	"Error: File does not contain "
	.section	.rodata.str1.8
	.align 8
.LC4:
	.string	"correctly formatted instruction\n"
	.section	.rodata.str1.1
.LC5:
	.string	"reg b: %u\n"
.LC6:
	.string	"%u\n"
	.section	.text.startup,"ax",@progbits
	.p2align 4,,15
	.globl	main
	.type	main, @function
main:
.LFB30:
	.file 1 "um.c"
	.loc 1 445 0
	.cfi_startproc
.LVL0:
	pushq	%r15
	.cfi_def_cfa_offset 16
	.cfi_offset 15, -16
	pushq	%r14
	.cfi_def_cfa_offset 24
	.cfi_offset 14, -24
	pushq	%r13
	.cfi_def_cfa_offset 32
	.cfi_offset 13, -32
	movq	%rsi, %r13
	pushq	%r12
	.cfi_def_cfa_offset 40
	.cfi_offset 12, -40
	movl	%edi, %r12d
.LBB82:
.LBB83:
	.loc 1 151 0
	movl	$8024, %edi
.LVL1:
.LBE83:
.LBE82:
	.loc 1 445 0
	pushq	%rbp
	.cfi_def_cfa_offset 48
	.cfi_offset 6, -48
	pushq	%rbx
	.cfi_def_cfa_offset 56
	.cfi_offset 3, -56
	subq	$200, %rsp
	.cfi_def_cfa_offset 256
.LBB86:
.LBB84:
	.loc 1 151 0
	call	malloc
.LVL2:
	.loc 1 152 0
	movl	$4000, %edi
	.loc 1 151 0
	movq	%rax, %rbx
.LVL3:
	.loc 1 152 0
	call	malloc
.LVL4:
	leaq	8016(%rbx), %rdx
	movq	%rax, 8(%rsp)
	movq	%rax, 8(%rbx)
	.loc 1 154 0
	movl	$1000, (%rbx)
.LVL5:
	.loc 1 156 0
	movl	$999, %eax
.LVL6:
	.p2align 4,,10
	.p2align 3
.L3:
	.loc 1 163 0
	subl	$5, %eax
.LVL7:
	.loc 1 159 0
	movq	$0, (%rdx)
.LVL8:
	.loc 1 160 0
	movq	$0, -8(%rdx)
	.loc 1 161 0
	movq	$0, -16(%rdx)
.LVL9:
	.loc 1 162 0
	movq	$0, -24(%rdx)
	subq	$40, %rdx
	.loc 1 163 0
	movq	$0, 8(%rdx)
	.loc 1 158 0
	cmpl	$-1, %eax
	jne	.L3
	movq	8(%rsp), %rax
.LVL10:
	xorl	%edx, %edx
	leaq	3996(%rax), %rcx
	.p2align 4,,10
	.p2align 3
.L5:
.LVL11:
	leal	1(%rdx), %eax
.LVL12:
	.loc 1 169 0
	movl	%edx, (%rcx)
.LVL13:
	subq	$20, %rcx
	movl	%eax, 16(%rcx)
.LVL14:
	leal	2(%rdx), %eax
	movl	%eax, 12(%rcx)
.LVL15:
	leal	3(%rdx), %eax
	.loc 1 173 0
	addl	$5, %edx
.LVL16:
	movl	%eax, 8(%rcx)
.LVL17:
	leal	-1(%rdx), %eax
	movl	%eax, 4(%rcx)
	.loc 1 168 0
	cmpl	$1000, %edx
	jne	.L5
.LBE84:
.LBE86:
.LBB87:
.LBB88:
	.loc 1 462 0
	cmpl	$2, %r12d
.LBE88:
.LBE87:
.LBB101:
.LBB85:
	.loc 1 176 0
	movl	$1000, 4(%rbx)
.LBE85:
.LBE101:
	.loc 1 450 0
	movq	$0, 16(%rsp)
	movq	$0, 24(%rsp)
	movq	$0, 32(%rsp)
	movq	$0, 40(%rsp)
.LVL18:
.LBB102:
.LBB99:
	.loc 1 462 0
	jne	.L71
	.loc 1 468 0
	movq	8(%r13), %rdi
	movl	$.LC1, %esi
	call	fopen
.LVL19:
.LBB89:
.LBB90:
	.file 2 "/usr/include/sys/stat.h"
	.loc 2 457 0
	movq	8(%r13), %rsi
	leaq	48(%rsp), %rdx
	movl	$1, %edi
.LBE90:
.LBE89:
	.loc 1 468 0
	movq	%rax, %r14
.LVL20:
.LBB92:
.LBB91:
	.loc 2 457 0
	call	__xstat
.LVL21:
.LBE91:
.LBE92:
	.loc 1 472 0
	cmpl	$-1, %eax
	je	.L72
	.loc 1 479 0
	movq	96(%rsp), %rax
	testb	$3, %al
	jne	.L73
	.loc 1 487 0
	leaq	3(%rax), %r12
.LVL22:
	testq	%rax, %rax
	cmovns	%rax, %r12
.LBB93:
.LBB94:
	.loc 1 190 0
	xorl	%ebp, %ebp
.LBE94:
.LBE93:
	.loc 1 487 0
	sarq	$2, %r12
.LVL23:
.LBB98:
.LBB97:
	.loc 1 184 0
	leal	0(,%r12,4), %edi
	movslq	%edi, %rdi
	addq	$4, %rdi
	call	malloc
.LVL24:
	.loc 1 191 0
	movq	%r14, %rdi
	.loc 1 186 0
	movl	%r12d, (%rax)
	.loc 1 184 0
	movq	%rax, %r13
.LVL25:
	.loc 1 191 0
	call	_IO_getc
.LVL26:
	.loc 1 192 0
	cmpl	$-1, %eax
	.loc 1 191 0
	movl	%eax, %edx
.LVL27:
	.loc 1 192 0
	je	.L12
.LVL28:
	.p2align 4,,10
	.p2align 3
.L59:
	.loc 1 195 0
	sall	$8, %edx
.LVL29:
	.loc 1 196 0
	movq	%r14, %rdi
	.loc 1 195 0
	movl	%edx, %r15d
.LVL30:
	.loc 1 196 0
	call	_IO_getc
.LVL31:
	movl	%eax, %r12d
.LVL32:
	.loc 1 199 0
	movq	%r14, %rdi
	.loc 1 197 0
	orl	%r15d, %r12d
.LVL33:
	.loc 1 198 0
	sall	$8, %r12d
.LVL34:
	.loc 1 199 0
	call	_IO_getc
.LVL35:
	.loc 1 202 0
	movq	%r14, %rdi
	.loc 1 200 0
	orl	%eax, %r12d
.LVL36:
	.loc 1 201 0
	sall	$8, %r12d
.LVL37:
	.loc 1 202 0
	call	_IO_getc
.LVL38:
	.loc 1 205 0
	movq	%r14, %rdi
	.loc 1 203 0
	orl	%eax, %r12d
.LVL39:
	.loc 1 205 0
	call	_IO_getc
.LVL40:
	movl	%eax, %edx
.LVL41:
	.loc 1 207 0
	movslq	%ebp, %rax
.LVL42:
	.loc 1 208 0
	addl	$1, %ebp
.LVL43:
	.loc 1 192 0
	cmpl	$-1, %edx
	.loc 1 207 0
	movl	%r12d, 4(%r13,%rax,4)
	.loc 1 192 0
	jne	.L59
.LVL44:
.L12:
	.loc 1 217 0
	movq	%r14, %rdi
	.loc 1 210 0
	movq	%r13, 24(%rbx)
.LVL45:
	.loc 1 215 0
	movq	%r13, 16(%rbx)
.LVL46:
.LBB95:
.LBB96:
	.loc 1 101 0
	movl	$999, (%rbx)
.LBE96:
.LBE95:
	.loc 1 217 0
	call	fclose
.LVL47:
.LBE97:
.LBE98:
.LBE99:
.LBE102:
.LBB103:
.LBB104:
	.loc 1 362 0
	movl	4(%r13), %eax
.LVL48:
	.loc 1 359 0
	xorl	%r13d, %r13d
.LVL49:
	.loc 1 369 0
	movl	%eax, %edx
	shrl	$28, %edx
.LVL50:
	.loc 1 371 0
	cmpl	$7, %edx
	je	.L23
.LVL51:
	.p2align 4,,10
	.p2align 3
.L66:
.LBB105:
	.loc 1 373 0
	movl	%eax, %ecx
	.loc 1 374 0
	movl	%eax, %r12d
	.loc 1 375 0
	movl	%eax, %r14d
	.loc 1 373 0
	andl	$448, %ecx
	.loc 1 374 0
	andl	$56, %r12d
	.loc 1 375 0
	andl	$7, %r14d
	.loc 1 373 0
	shrl	$6, %ecx
.LVL52:
	.loc 1 374 0
	shrl	$3, %r12d
.LVL53:
	.loc 1 377 0
	cmpl	$13, %edx
	ja	.L14
	jmp	*.L16(,%rdx,8)
	.section	.rodata
	.align 8
	.align 4
.L16:
	.quad	.L15
	.quad	.L17
	.quad	.L18
	.quad	.L19
	.quad	.L20
	.quad	.L21
	.quad	.L22
	.quad	.L23
	.quad	.L24
	.quad	.L25
	.quad	.L26
	.quad	.L27
	.quad	.L28
	.quad	.L29
	.section	.text.startup
.L27:
.LVL54:
.LBB106:
.LBB107:
.LBB108:
	.loc 1 82 0
	movq	stdin(%rip), %rdi
	call	fgetc
.LVL55:
	.loc 1 89 0
	movl	%eax, 16(%rsp,%r14,4)
.LVL56:
	.p2align 4,,10
	.p2align 3
.L14:
.LBE108:
.LBE107:
.LBE106:
	.loc 1 434 0
	movq	16(%rbx), %rax
	.loc 1 433 0
	addl	$1, %r13d
.LVL57:
	.loc 1 434 0
	movl	%r13d, %edx
	movl	4(%rax,%rdx,4), %eax
.LVL58:
	.loc 1 435 0
	movl	%eax, %edx
	shrl	$28, %edx
.LVL59:
.LBE105:
	.loc 1 371 0
	cmpl	$7, %edx
	jne	.L66
.LVL60:
.L23:
.LBB153:
.LBB151:
.LBB109:
.LBB110:
.LBB111:
	.loc 1 347 0
	xorl	%r12d, %r12d
.LVL61:
	.p2align 4,,10
	.p2align 3
.L50:
.LBE111:
.LBE110:
.LBE109:
.LBE151:
.LBE153:
.LBE104:
.LBE103:
.LBB156:
.LBB157:
	.loc 1 227 0
	movq	24(%rbx,%r12), %rdi
	testq	%rdi, %rdi
	je	.L48
.LVL62:
.LBB158:
	.loc 1 229 0
	call	free
.LVL63:
.L48:
	addq	$8, %r12
.LBE158:
	.loc 1 226 0
	cmpq	$8000, %r12
	jne	.L50
	.loc 1 233 0
	movq	8(%rsp), %rdi
	call	free
.LVL64:
	.loc 1 234 0
	movq	%rbx, %rdi
	call	free
.LVL65:
.LBE157:
.LBE156:
	.loc 1 458 0
	addq	$200, %rsp
	.cfi_remember_state
	.cfi_def_cfa_offset 56
	xorl	%eax, %eax
	popq	%rbx
	.cfi_def_cfa_offset 48
.LVL66:
	popq	%rbp
	.cfi_def_cfa_offset 40
	popq	%r12
	.cfi_def_cfa_offset 32
	popq	%r13
	.cfi_def_cfa_offset 24
	popq	%r14
	.cfi_def_cfa_offset 16
	popq	%r15
	.cfi_def_cfa_offset 8
	ret
.LVL67:
.L28:
	.cfi_restore_state
.LBB159:
.LBB155:
.LBB154:
.LBB152:
.LBB115:
.LBB113:
	.loc 1 335 0
	movl	16(%rsp,%r12,4), %eax
.LVL68:
	testl	%eax, %eax
	jne	.L74
.LVL69:
.L43:
.LBE113:
.LBE115:
	.loc 1 421 0
	movl	16(%rsp,%r14,4), %r13d
	subl	$1, %r13d
.LVL70:
	jmp	.L14
.LVL71:
.L26:
.LBB116:
.LBB117:
	.loc 1 94 0
	movl	16(%rsp,%r14,4), %edi
	movq	stdout(%rip), %rsi
	call	fputc
.LVL72:
	jmp	.L14
.LVL73:
.L25:
.LBE117:
.LBE116:
.LBB118:
.LBB119:
	.loc 1 321 0
	movl	16(%rsp,%r14,4), %r12d
.LVL74:
	movl	%r12d, %eax
.LVL75:
	leaq	(%rbx,%rax,8), %r14
.LVL76:
	.loc 1 323 0
	movq	24(%r14), %rdi
	call	free
.LVL77:
	.loc 1 325 0
	movq	$0, 24(%r14)
.LVL78:
.LBB120:
.LBB121:
	.loc 1 108 0
	movl	(%rbx), %eax
.LVL79:
	.loc 1 109 0
	movq	8(%rsp), %rsi
	movslq	%eax, %rdx
	.loc 1 110 0
	addl	$1, %eax
.LVL80:
	.loc 1 109 0
	movl	%r12d, (%rsi,%rdx,4)
	.loc 1 110 0
	movl	%eax, (%rbx)
.LVL81:
	jmp	.L14
.LVL82:
.L24:
.LBE121:
.LBE120:
.LBE119:
.LBE118:
.LBB122:
.LBB123:
	.loc 1 299 0
	movl	16(%rsp,%r14,4), %r14d
.LVL83:
	.loc 1 300 0
	leal	0(,%r14,4), %edi
	movslq	%edi, %rdi
	addq	$4, %rdi
	call	malloc
.LVL84:
.LBB124:
	.loc 1 303 0
	xorl	%edx, %edx
	testl	%r14d, %r14d
.LBE124:
	.loc 1 301 0
	movl	%r14d, (%rax)
.LVL85:
.LBB125:
	.loc 1 303 0
	jle	.L33
.LVL86:
	.p2align 4,,10
	.p2align 3
.L60:
	.loc 1 304 0
	movl	$0, 4(%rax,%rdx,4)
.LVL87:
	addq	$1, %rdx
.LVL88:
	.loc 1 303 0
	cmpl	%edx, %r14d
	jg	.L60
.L33:
.LBE125:
	.loc 1 307 0
	movl	(%rbx), %r15d
	testl	%r15d, %r15d
	je	.L75
.LVL89:
.L32:
.LBB126:
.LBB127:
	.loc 1 100 0
	movq	8(%rsp), %rsi
	.loc 1 99 0
	subl	$1, %r15d
.LVL90:
	.loc 1 100 0
	movslq	%r15d, %rax
	.loc 1 101 0
	movl	%r15d, (%rbx)
	.loc 1 100 0
	movl	(%rsi,%rax,4), %eax
.LVL91:
.LBE127:
.LBE126:
	.loc 1 316 0
	movl	%eax, 16(%rsp,%r12,4)
	jmp	.L14
.LVL92:
.L22:
.LBE123:
.LBE122:
.LBB133:
.LBB134:
	.loc 1 65 0
	movl	16(%rsp,%r12,4), %eax
.LVL93:
	andl	16(%rsp,%r14,4), %eax
	notl	%eax
	movl	%eax, 16(%rsp,%rcx,4)
	jmp	.L14
.LVL94:
.L21:
.LBE134:
.LBE133:
.LBB135:
.LBB136:
	.loc 1 71 0
	movl	16(%rsp,%r12,4), %eax
.LVL95:
	xorl	%edx, %edx
.LVL96:
	divl	16(%rsp,%r14,4)
	movl	%eax, 16(%rsp,%rcx,4)
	jmp	.L14
.LVL97:
.L20:
.LBE136:
.LBE135:
.LBB137:
.LBB138:
	.loc 1 58 0
	movl	16(%rsp,%r12,4), %eax
.LVL98:
	imull	16(%rsp,%r14,4), %eax
	movl	%eax, 16(%rsp,%rcx,4)
	jmp	.L14
.LVL99:
.L19:
.LBE138:
.LBE137:
.LBB139:
.LBB140:
	.loc 1 51 0
	movl	16(%rsp,%r12,4), %eax
.LVL100:
	addl	16(%rsp,%r14,4), %eax
	movl	%eax, 16(%rsp,%rcx,4)
	jmp	.L14
.LVL101:
.L18:
.LBE140:
.LBE139:
.LBB141:
.LBB142:
	.loc 1 287 0
	leaq	16(%rsp,%r12,4), %rbp
	.loc 1 285 0
	movl	16(%rsp,%rcx,4), %eax
.LVL102:
	.loc 1 287 0
	movq	stderr(%rip), %rdi
	movl	$.LC5, %esi
	movl	0(%rbp), %r12d
.LVL103:
	.loc 1 285 0
	movq	24(%rbx,%rax,8), %r15
.LVL104:
	.loc 1 287 0
	xorl	%eax, %eax
	movl	%r12d, %edx
.LVL105:
	call	fprintf
.LVL106:
	.loc 1 288 0
	movl	0(%rbp), %eax
	movl	16(%rsp,%r14,4), %edx
	.loc 1 289 0
	movl	$.LC6, %esi
	movq	stderr(%rip), %rdi
	.loc 1 288 0
	movl	%edx, 4(%r15,%rax,4)
	.loc 1 289 0
	movl	4(%r15,%r12,4), %edx
	xorl	%eax, %eax
	call	fprintf
.LVL107:
	jmp	.L14
.LVL108:
.L17:
.LBE142:
.LBE141:
.LBB143:
.LBB144:
	.loc 1 276 0
	movl	16(%rsp,%r12,4), %eax
.LVL109:
	.loc 1 278 0
	movl	16(%rsp,%r14,4), %edx
.LVL110:
	movq	24(%rbx,%rax,8), %rax
	movl	4(%rax,%rdx,4), %eax
	movl	%eax, 16(%rsp,%rcx,4)
.LVL111:
	jmp	.L14
.LVL112:
.L29:
.LBE144:
.LBE143:
	.loc 1 425 0
	movq	%rax, %rdx
.LVL113:
	.loc 1 427 0
	andl	$33554431, %eax
.LVL114:
	.loc 1 425 0
	shrq	$25, %rdx
.LBB145:
.LBB146:
	.loc 1 77 0
	andl	$7, %edx
.LBE146:
.LBE145:
	.loc 1 427 0
	movl	%eax, 16(%rsp,%rdx,4)
.LVL115:
	jmp	.L14
.LVL116:
.L15:
.LBB147:
.LBB148:
	.loc 1 43 0
	cmpl	$0, 16(%rsp,%r14,4)
	je	.L14
	.loc 1 44 0
	movl	16(%rsp,%r12,4), %eax
.LVL117:
	movl	%eax, 16(%rsp,%rcx,4)
	jmp	.L14
.LVL118:
.L74:
.LBE148:
.LBE147:
.LBB149:
.LBB114:
	.loc 1 339 0
	movq	24(%rbx,%rax,8), %r13
.LVL119:
	.loc 1 341 0
	movq	24(%rbx), %rdi
	call	free
.LVL120:
	.loc 1 343 0
	movl	0(%r13), %r12d
.LVL121:
	.loc 1 345 0
	leal	0(,%r12,4), %edi
	movslq	%edi, %rdi
	addq	$4, %rdi
	call	malloc
.LVL122:
.LBB112:
	.loc 1 347 0
	xorl	%edx, %edx
	testl	%r12d, %r12d
	jle	.L45
.LVL123:
	.p2align 4,,10
	.p2align 3
.L61:
	.loc 1 348 0
	movl	4(%r13,%rdx,4), %ecx
	movl	%ecx, 4(%rax,%rdx,4)
.LVL124:
	addq	$1, %rdx
.LVL125:
	.loc 1 347 0
	cmpl	%edx, %r12d
	jg	.L61
.L45:
.LBE112:
	.loc 1 350 0
	movq	%rax, 24(%rbx)
	.loc 1 351 0
	movq	%rax, 16(%rbx)
	jmp	.L43
.LVL126:
.L75:
.LBE114:
.LBE149:
.LBB150:
.LBB132:
.LBB128:
.LBB129:
	.loc 1 248 0
	movl	$16024, %edi
	call	malloc
.LVL127:
	movq	%rax, %r14
.LVL128:
	.loc 1 250 0
	movl	$0, (%rax)
	.loc 1 251 0
	movl	$1000, 4(%rax)
	.loc 1 252 0
	movq	8(%rsp), %rax
.LVL129:
	.loc 1 253 0
	xorl	%edx, %edx
	.loc 1 252 0
	movq	%rax, 8(%r14)
	.loc 1 253 0
	movq	16(%rbx), %rax
	movq	%rax, 16(%r14)
.LVL130:
	.p2align 4,,10
	.p2align 3
.L36:
	.loc 1 257 0
	movq	8016(%rbx,%rdx), %rax
	movq	%rax, 8016(%r14,%rdx)
	subq	$8, %rdx
	.loc 1 256 0
	cmpq	$-8000, %rdx
	jne	.L36
	xorl	%edx, %edx
.LVL131:
	.p2align 4,,10
	.p2align 3
.L38:
	.loc 1 262 0
	movq	$0, 8024(%r14,%rdx)
	addq	$8, %rdx
	.loc 1 261 0
	cmpq	$8000, %rdx
	jne	.L38
.LVL132:
.LBB130:
.LBB131:
	.loc 1 122 0
	movl	$8000, %edi
	call	malloc
.LVL133:
	leaq	3996(%rax), %rcx
	movq	%rax, %rbp
.LVL134:
	movl	$1999, %edx
.LVL135:
	.p2align 4,,10
	.p2align 3
.L40:
	.loc 1 126 0
	movl	%edx, (%rcx)
	subl	$1, %edx
.LVL136:
	subq	$4, %rcx
.LVL137:
	.loc 1 125 0
	cmpl	$999, %edx
	jne	.L40
	movq	8(%rsp), %rcx
.LVL138:
	leaq	4000(%rbp), %rdx
.LVL139:
	movl	$1000, %esi
	.p2align 4,,10
	.p2align 3
.L42:
.LVL140:
	.loc 1 130 0
	movl	(%rcx), %edi
	.loc 1 129 0
	addl	$5, %esi
.LVL141:
	addq	$20, %rcx
	addq	$20, %rdx
	.loc 1 130 0
	movl	%edi, -20(%rdx)
	.loc 1 131 0
	movl	-16(%rcx), %edi
	movl	%edi, -16(%rdx)
	.loc 1 132 0
	movl	-12(%rcx), %edi
	movl	%edi, -12(%rdx)
	.loc 1 133 0
	movl	-8(%rcx), %edi
	movl	%edi, -8(%rdx)
	.loc 1 134 0
	movl	-4(%rcx), %edi
	movl	%edi, -4(%rdx)
	.loc 1 129 0
	cmpl	$2000, %esi
	jne	.L42
	.loc 1 136 0
	movq	8(%rsp), %rdi
	call	free
.LVL142:
	.loc 1 137 0
	movq	%rbp, 8(%r14)
	.loc 1 138 0
	movl	$2000, 4(%r14)
	.loc 1 139 0
	movl	$1000, (%r14)
	jmp	.L32
.LVL143:
.L71:
.LBE131:
.LBE130:
.LBE129:
.LBE128:
.LBE132:
.LBE150:
.LBE152:
.LBE154:
.LBE155:
.LBE159:
.LBB160:
.LBB100:
	.loc 1 463 0
	movq	stderr(%rip), %rcx
	movl	$.LC0, %edi
	movl	$31, %edx
.LVL144:
	movl	$1, %esi
	call	fwrite
.LVL145:
	.loc 1 464 0
	movl	$1, %edi
	call	exit
.LVL146:
.L73:
	.loc 1 480 0
	movq	stderr(%rip), %rcx
	movl	$29, %edx
	movl	$1, %esi
	movl	$.LC3, %edi
	call	fwrite
.LVL147:
	.loc 1 481 0
	movq	stderr(%rip), %rcx
	movl	$.LC4, %edi
	movl	$32, %edx
	movl	$1, %esi
	call	fwrite
.LVL148:
	.loc 1 482 0
	movl	$1, %edi
	call	exit
.LVL149:
.L72:
	.loc 1 473 0
	movq	stderr(%rip), %rcx
	movl	$.LC2, %edi
	movl	$18, %edx
	movl	$1, %esi
	call	fwrite
.LVL150:
	.loc 1 474 0
	movl	$1, %edi
	call	exit
.LVL151:
.LBE100:
.LBE160:
	.cfi_endproc
.LFE30:
	.size	main, .-main
	.text
.Letext0:
	.file 3 "/usr/sup/gcc-4.8.0/lib/gcc/x86_64-unknown-linux-gnu/4.8.0/include/stddef.h"
	.file 4 "/usr/include/bits/types.h"
	.file 5 "/usr/include/stdio.h"
	.file 6 "/usr/include/libio.h"
	.file 7 "/usr/include/stdint.h"
	.file 8 "/usr/include/bits/stat.h"
	.file 9 "/usr/include/stdlib.h"
	.file 10 "<built-in>"
	.section	.note.GNU-stack,"",@progbits
